target datalayout = "e-m:e-p270:32:32-p271:32:32-p272:64:64-i64:64-i128:128-f80:128-n8:16:32:64-S128"
target triple = "x86_64-pc-linux-gnu"

%"struct.Luau::Nth" = type { i32, i32 }
%"struct.Luau::FindNthOccurenceOf" = type { %"class.Luau::AstVisitor", %"struct.Luau::Nth", i32, ptr }
%"class.Luau::AstVisitor" = type { ptr }

; Function Attrs: mustprogress nounwind uwtable
define linkonce_odr dso_local void @_ZN4Luau10AstVisitorC2Ev(ptr noundef nonnull align 8 dereferenceable(8) %0) unnamed_addr #1 comdat align 2 {
  %2 = alloca ptr, align 8
  store ptr %0, ptr %2, align 8
  %3 = load ptr, ptr %2, align 8
  store ptr getelementptr inbounds inrange(-16, 472) ({ [61 x ptr] }, ptr @_ZTVN4Luau10AstVisitorE, i32 0, i32 0, i32 2), ptr %3, align 8
  ret void
}

; Function Attrs: mustprogress nounwind uwtable
define dso_local void @_ZN4Luau18FindNthOccurenceOfC2ENS_3NthE(ptr noundef nonnull align 8 dereferenceable(32) %0, i64 %1) unnamed_addr #1 align 2 {
  %3 = alloca %"struct.Luau::Nth", align 4
  %4 = alloca ptr, align 8
  store i64 %1, ptr %3, align 4
  store ptr %0, ptr %4, align 8
  %5 = load ptr, ptr %4, align 8
  call void @_ZN4Luau10AstVisitorC2Ev(ptr noundef nonnull align 8 dereferenceable(8) %5) #5
  store ptr getelementptr inbounds inrange(-16, 472) ({ [61 x ptr] }, ptr @_ZTVN4Luau18FindNthOccurenceOfE, i32 0, i32 0, i32 2), ptr %5, align 8
  %6 = getelementptr inbounds %"struct.Luau::FindNthOccurenceOf", ptr %5, i32 0, i32 1
  call void @llvm.memcpy.p0.p0.i64(ptr align 8 %6, ptr align 4 %3, i64 8, i1 false)
  %7 = getelementptr inbounds %"struct.Luau::FindNthOccurenceOf", ptr %5, i32 0, i32 2
  store i32 0, ptr %7, align 8
  %8 = getelementptr inbounds %"struct.Luau::FindNthOccurenceOf", ptr %5, i32 0, i32 3
  store ptr null, ptr %8, align 8
  ret void
}