; Function Attrs: mustprogress nofree norecurse nosync nounwind willreturn memory(argmem: write) uwtable
define dso_local void @_ZN4Luau18FindNthOccurenceOfC2ENS_3NthE(ptr nocapture noundef nonnull writeonly align 8 dereferenceable(32) %0, i64 %1) unnamed_addr #1 align 2 {
  store ptr getelementptr inbounds inrange(-16, 472) (i8, ptr @_ZTVN4Luau18FindNthOccurenceOfE, i64 16), ptr %0, align 8
  %3 = getelementptr inbounds i8, ptr %0, i64 8
  store i64 %1, ptr %3, align 8
  %4 = getelementptr inbounds i8, ptr %0, i64 16
  store i32 0, ptr %4, align 8
  %5 = getelementptr inbounds i8, ptr %0, i64 24
  store ptr null, ptr %5, align 8
  ret void
}